target datalayout = "e-m:e-p270:32:32-p271:32:32-p272:64:64-i64:64-i128:128-f80:128-n8:16:32:64-S128"
target triple = "x86_64-pc-linux-gnu"

%struct.expert_field = type { i32, i32 }

@ei_gsm_a_bssmap_extraneous_data = internal global %struct.expert_field zeroinitializer, align 4
@.str.137 = private unnamed_addr constant [1 x i8] zeroinitializer, align 1
@ei_gsm_a_bssmap_missing_mandatory_element = internal global %struct.expert_field zeroinitializer, align 4
@.str.139 = private unnamed_addr constant [71 x i8] c"Missing Mandatory element (0x%02x) %s%s, rest of dissection is suspect\00", align 1
@.str.1121 = private unnamed_addr constant [10 x i8] c" (Chosen)\00", align 1
@.str.1122 = private unnamed_addr constant [9 x i8] c"(Chosen)\00", align 1
@.str.1123 = private unnamed_addr constant [16 x i8] c"(BSS Supported)\00", align 1

; Function Attrs: null_pointer_is_valid sspstrong uwtable
define internal void @bssmap_ho_req_ack(ptr noundef %0, ptr noundef %1, ptr noundef %2, i32 noundef %3, i32 noundef %4) #1 {
  %6 = alloca ptr, align 8
  %7 = alloca ptr, align 8
  %8 = alloca ptr, align 8
  %9 = alloca i32, align 4
  %10 = alloca i32, align 4
  %11 = alloca i32, align 4
  %12 = alloca i32, align 4
  %13 = alloca i32, align 4
  %14 = alloca i32, align 4
  store ptr %0, ptr %6, align 8
  store ptr %1, ptr %7, align 8
  store ptr %2, ptr %8, align 8
  store i32 %3, ptr %9, align 4
  store i32 %4, ptr %10, align 4
  call void @llvm.lifetime.start.p0(i64 4, ptr %11) #5
  call void @llvm.lifetime.start.p0(i64 4, ptr %12) #5
  call void @llvm.lifetime.start.p0(i64 4, ptr %13) #5
  %15 = load i32, ptr %9, align 4
  store i32 %15, ptr %11, align 4
  %16 = load i32, ptr %10, align 4
  store i32 %16, ptr %13, align 4
  %17 = load i32, ptr %13, align 4
  %18 = icmp sgt i32 %17, 0
  br i1 %18, label %19, label %35

19:                                               ; preds = %5
  %20 = load ptr, ptr %6, align 8
  %21 = load ptr, ptr %7, align 8
  %22 = load ptr, ptr %8, align 8
  %23 = load i32, ptr %11, align 4
  %24 = load i32, ptr %13, align 4
  %25 = call zeroext i16 @elem_tlv(ptr noundef %20, ptr noundef %21, ptr noundef %22, i8 noundef zeroext 23, i32 noundef 0, i32 noundef 23, i32 noundef %23, i32 noundef %24, ptr noundef null)
  %26 = zext i16 %25 to i32
  store i32 %26, ptr %12, align 4
  %27 = icmp ugt i32 %26, 0
  br i1 %27, label %28, label %35

28:                                               ; preds = %19
  %29 = load i32, ptr %12, align 4
  %30 = load i32, ptr %11, align 4
  %31 = add i32 %30, %29
  store i32 %31, ptr %11, align 4
  %32 = load i32, ptr %12, align 4
  %33 = load i32, ptr %13, align 4
  %34 = sub i32 %33, %32
  store i32 %34, ptr %13, align 4
  br label %42

35:                                               ; preds = %19, %5
  %36 = load ptr, ptr %7, align 8
  %37 = load ptr, ptr %8, align 8
  %38 = load ptr, ptr %6, align 8
  %39 = load i32, ptr %11, align 4
  %40 = call ptr @get_gsm_a_msg_string(i32 noundef 0, i32 noundef 23)
  %41 = call ptr (ptr, ptr, ptr, ptr, i32, i32, ptr, ...) @proto_tree_add_expert_format(ptr noundef %36, ptr noundef %37, ptr noundef @ei_gsm_a_bssmap_missing_mandatory_element, ptr noundef %38, i32 noundef %39, i32 noundef 0, ptr noundef @.str.139, i32 noundef 23, ptr noundef %40, ptr noundef @.str.137)
  br label %42

42:                                               ; preds = %35, %28
  %43 = load i32, ptr %13, align 4
  %44 = icmp sle i32 %43, 0
  br i1 %44, label %45, label %46

45:                                               ; preds = %42
  store i32 1, ptr %14, align 4
  br label %311

46:                                               ; preds = %42
  %47 = load ptr, ptr %6, align 8
  %48 = load ptr, ptr %7, align 8
  %49 = load ptr, ptr %8, align 8
  %50 = load i32, ptr %11, align 4
  %51 = call zeroext i16 @elem_tv(ptr noundef %47, ptr noundef %48, ptr noundef %49, i8 noundef zeroext 33, i32 noundef 0, i32 noundef 33, i32 noundef %50, ptr noundef null)
  %52 = zext i16 %51 to i32
  store i32 %52, ptr %12, align 4
  %53 = icmp ugt i32 %52, 0
  br i1 %53, label %54, label %61

54:                                               ; preds = %46
  %55 = load i32, ptr %12, align 4
  %56 = load i32, ptr %11, align 4
  %57 = add i32 %56, %55
  store i32 %57, ptr %11, align 4
  %58 = load i32, ptr %12, align 4
  %59 = load i32, ptr %13, align 4
  %60 = sub i32 %59, %58
  store i32 %60, ptr %13, align 4
  br label %61

61:                                               ; preds = %54, %46
  %62 = load i32, ptr %13, align 4
  %63 = icmp sle i32 %62, 0
  br i1 %63, label %64, label %65

64:                                               ; preds = %61
  store i32 1, ptr %14, align 4
  br label %311

65:                                               ; preds = %61
  %66 = load ptr, ptr %6, align 8
  %67 = load ptr, ptr %7, align 8
  %68 = load ptr, ptr %8, align 8
  %69 = load i32, ptr %11, align 4
  %70 = call zeroext i16 @elem_tv(ptr noundef %66, ptr noundef %67, ptr noundef %68, i8 noundef zeroext 44, i32 noundef 0, i32 noundef 44, i32 noundef %69, ptr noundef null)
  %71 = zext i16 %70 to i32
  store i32 %71, ptr %12, align 4
  %72 = icmp ugt i32 %71, 0
  br i1 %72, label %73, label %80

73:                                               ; preds = %65
  %74 = load i32, ptr %12, align 4
  %75 = load i32, ptr %11, align 4
  %76 = add i32 %75, %74
  store i32 %76, ptr %11, align 4
  %77 = load i32, ptr %12, align 4
  %78 = load i32, ptr %13, align 4
  %79 = sub i32 %78, %77
  store i32 %79, ptr %13, align 4
  br label %80

80:                                               ; preds = %73, %65
  %81 = load i32, ptr %13, align 4
  %82 = icmp sle i32 %81, 0
  br i1 %82, label %83, label %84

83:                                               ; preds = %80
  store i32 1, ptr %14, align 4
  br label %311

84:                                               ; preds = %80
  %85 = load ptr, ptr %6, align 8
  %86 = load ptr, ptr %7, align 8
  %87 = load ptr, ptr %8, align 8
  %88 = load i32, ptr %11, align 4
  %89 = call zeroext i16 @elem_tv(ptr noundef %85, ptr noundef %86, ptr noundef %87, i8 noundef zeroext 45, i32 noundef 0, i32 noundef 45, i32 noundef %88, ptr noundef null)
  %90 = zext i16 %89 to i32
  store i32 %90, ptr %12, align 4
  %91 = icmp ugt i32 %90, 0
  br i1 %91, label %92, label %99

92:                                               ; preds = %84
  %93 = load i32, ptr %12, align 4
  %94 = load i32, ptr %11, align 4
  %95 = add i32 %94, %93
  store i32 %95, ptr %11, align 4
  %96 = load i32, ptr %12, align 4
  %97 = load i32, ptr %13, align 4
  %98 = sub i32 %97, %96
  store i32 %98, ptr %13, align 4
  br label %99

99:                                               ; preds = %92, %84
  %100 = load i32, ptr %13, align 4
  %101 = icmp sle i32 %100, 0
  br i1 %101, label %102, label %103

102:                                              ; preds = %99
  store i32 1, ptr %14, align 4
  br label %311

103:                                              ; preds = %99
  %104 = load ptr, ptr %6, align 8
  %105 = load ptr, ptr %7, align 8
  %106 = load ptr, ptr %8, align 8
  %107 = load i32, ptr %11, align 4
  %108 = call zeroext i16 @elem_tv(ptr noundef %104, ptr noundef %105, ptr noundef %106, i8 noundef zeroext 64, i32 noundef 0, i32 noundef 64, i32 noundef %107, ptr noundef @.str.1121)
  %109 = zext i16 %108 to i32
  store i32 %109, ptr %12, align 4
  %110 = icmp ugt i32 %109, 0
  br i1 %110, label %111, label %118

111:                                              ; preds = %103
  %112 = load i32, ptr %12, align 4
  %113 = load i32, ptr %11, align 4
  %114 = add i32 %113, %112
  store i32 %114, ptr %11, align 4
  %115 = load i32, ptr %12, align 4
  %116 = load i32, ptr %13, align 4
  %117 = sub i32 %116, %115
  store i32 %117, ptr %13, align 4
  br label %118

118:                                              ; preds = %111, %103
  %119 = load i32, ptr %13, align 4
  %120 = icmp sle i32 %119, 0
  br i1 %120, label %121, label %122

121:                                              ; preds = %118
  store i32 1, ptr %14, align 4
  br label %311

122:                                              ; preds = %118
  %123 = load ptr, ptr %6, align 8
  %124 = load ptr, ptr %7, align 8
  %125 = load ptr, ptr %8, align 8
  %126 = load i32, ptr %11, align 4
  %127 = call zeroext i16 @elem_tv(ptr noundef %123, ptr noundef %124, ptr noundef %125, i8 noundef zeroext 1, i32 noundef 0, i32 noundef 1, i32 noundef %126, ptr noundef null)
  %128 = zext i16 %127 to i32
  store i32 %128, ptr %12, align 4
  %129 = icmp ugt i32 %128, 0
  br i1 %129, label %130, label %137

130:                                              ; preds = %122
  %131 = load i32, ptr %12, align 4
  %132 = load i32, ptr %11, align 4
  %133 = add i32 %132, %131
  store i32 %133, ptr %11, align 4
  %134 = load i32, ptr %12, align 4
  %135 = load i32, ptr %13, align 4
  %136 = sub i32 %135, %134
  store i32 %136, ptr %13, align 4
  br label %137

137:                                              ; preds = %130, %122
  %138 = load i32, ptr %13, align 4
  %139 = icmp sle i32 %138, 0
  br i1 %139, label %140, label %141

140:                                              ; preds = %137
  store i32 1, ptr %14, align 4
  br label %311

141:                                              ; preds = %137
  %142 = load ptr, ptr %6, align 8
  %143 = load ptr, ptr %7, align 8
  %144 = load ptr, ptr %8, align 8
  %145 = load i32, ptr %11, align 4
  %146 = load i32, ptr %13, align 4
  %147 = call zeroext i16 @elem_tlv(ptr noundef %142, ptr noundef %143, ptr noundef %144, i8 noundef zeroext 59, i32 noundef 0, i32 noundef 59, i32 noundef %145, i32 noundef %146, ptr noundef null)
  %148 = zext i16 %147 to i32
  store i32 %148, ptr %12, align 4
  %149 = icmp ugt i32 %148, 0
  br i1 %149, label %150, label %157

150:                                              ; preds = %141
  %151 = load i32, ptr %12, align 4
  %152 = load i32, ptr %11, align 4
  %153 = add i32 %152, %151
  store i32 %153, ptr %11, align 4
  %154 = load i32, ptr %12, align 4
  %155 = load i32, ptr %13, align 4
  %156 = sub i32 %155, %154
  store i32 %156, ptr %13, align 4
  br label %157

157:                                              ; preds = %150, %141
  %158 = load i32, ptr %13, align 4
  %159 = icmp sle i32 %158, 0
  br i1 %159, label %160, label %161

160:                                              ; preds = %157
  store i32 1, ptr %14, align 4
  br label %311

161:                                              ; preds = %157
  %162 = load ptr, ptr %6, align 8
  %163 = load ptr, ptr %7, align 8
  %164 = load ptr, ptr %8, align 8
  %165 = load i32, ptr %11, align 4
  %166 = load i32, ptr %13, align 4
  %167 = call zeroext i16 @elem_tlv(ptr noundef %162, ptr noundef %163, ptr noundef %164, i8 noundef zeroext 97, i32 noundef 0, i32 noundef 97, i32 noundef %165, i32 noundef %166, ptr noundef null)
  %168 = zext i16 %167 to i32
  store i32 %168, ptr %12, align 4
  %169 = icmp ugt i32 %168, 0
  br i1 %169, label %170, label %177

170:                                              ; preds = %161
  %171 = load i32, ptr %12, align 4
  %172 = load i32, ptr %11, align 4
  %173 = add i32 %172, %171
  store i32 %173, ptr %11, align 4
  %174 = load i32, ptr %12, align 4
  %175 = load i32, ptr %13, align 4
  %176 = sub i32 %175, %174
  store i32 %176, ptr %13, align 4
  br label %177

177:                                              ; preds = %170, %161
  %178 = load i32, ptr %13, align 4
  %179 = icmp sle i32 %178, 0
  br i1 %179, label %180, label %181

180:                                              ; preds = %177
  store i32 1, ptr %14, align 4
  br label %311

181:                                              ; preds = %177
  %182 = load ptr, ptr %6, align 8
  %183 = load ptr, ptr %7, align 8
  %184 = load ptr, ptr %8, align 8
  %185 = load i32, ptr %11, align 4
  %186 = load i32, ptr %13, align 4
  %187 = call zeroext i16 @elem_tlv(ptr noundef %182, ptr noundef %183, ptr noundef %184, i8 noundef zeroext 99, i32 noundef 0, i32 noundef 99, i32 noundef %185, i32 noundef %186, ptr noundef null)
  %188 = zext i16 %187 to i32
  store i32 %188, ptr %12, align 4
  %189 = icmp ugt i32 %188, 0
  br i1 %189, label %190, label %197

190:                                              ; preds = %181
  %191 = load i32, ptr %12, align 4
  %192 = load i32, ptr %11, align 4
  %193 = add i32 %192, %191
  store i32 %193, ptr %11, align 4
  %194 = load i32, ptr %12, align 4
  %195 = load i32, ptr %13, align 4
  %196 = sub i32 %195, %194
  store i32 %196, ptr %13, align 4
  br label %197

197:                                              ; preds = %190, %181
  %198 = load i32, ptr %13, align 4
  %199 = icmp sle i32 %198, 0
  br i1 %199, label %200, label %201

200:                                              ; preds = %197
  store i32 1, ptr %14, align 4
  br label %311

201:                                              ; preds = %197
  %202 = load ptr, ptr %6, align 8
  %203 = load ptr, ptr %7, align 8
  %204 = load ptr, ptr %8, align 8
  %205 = load i32, ptr %11, align 4
  %206 = call zeroext i16 @elem_tv(ptr noundef %202, ptr noundef %203, ptr noundef %204, i8 noundef zeroext 106, i32 noundef 0, i32 noundef 106, i32 noundef %205, ptr noundef null)
  %207 = zext i16 %206 to i32
  store i32 %207, ptr %12, align 4
  %208 = icmp ugt i32 %207, 0
  br i1 %208, label %209, label %216

209:                                              ; preds = %201
  %210 = load i32, ptr %12, align 4
  %211 = load i32, ptr %11, align 4
  %212 = add i32 %211, %210
  store i32 %212, ptr %11, align 4
  %213 = load i32, ptr %12, align 4
  %214 = load i32, ptr %13, align 4
  %215 = sub i32 %214, %213
  store i32 %215, ptr %13, align 4
  br label %216

216:                                              ; preds = %209, %201
  %217 = load i32, ptr %13, align 4
  %218 = icmp sle i32 %217, 0
  br i1 %218, label %219, label %220

219:                                              ; preds = %216
  store i32 1, ptr %14, align 4
  br label %311

220:                                              ; preds = %216
  %221 = load ptr, ptr %6, align 8
  %222 = load ptr, ptr %7, align 8
  %223 = load ptr, ptr %8, align 8
  %224 = load i32, ptr %11, align 4
  %225 = load i32, ptr %13, align 4
  %226 = call zeroext i16 @elem_tlv(ptr noundef %221, ptr noundef %222, ptr noundef %223, i8 noundef zeroext 124, i32 noundef 0, i32 noundef 124, i32 noundef %224, i32 noundef %225, ptr noundef null)
  %227 = zext i16 %226 to i32
  store i32 %227, ptr %12, align 4
  %228 = icmp ugt i32 %227, 0
  br i1 %228, label %229, label %236

229:                                              ; preds = %220
  %230 = load i32, ptr %12, align 4
  %231 = load i32, ptr %11, align 4
  %232 = add i32 %231, %230
  store i32 %232, ptr %11, align 4
  %233 = load i32, ptr %12, align 4
  %234 = load i32, ptr %13, align 4
  %235 = sub i32 %234, %233
  store i32 %235, ptr %13, align 4
  br label %236

236:                                              ; preds = %229, %220
  %237 = load i32, ptr %13, align 4
  %238 = icmp sle i32 %237, 0
  br i1 %238, label %239, label %240

239:                                              ; preds = %236
  store i32 1, ptr %14, align 4
  br label %311

240:                                              ; preds = %236
  %241 = load ptr, ptr %6, align 8
  %242 = load ptr, ptr %7, align 8
  %243 = load ptr, ptr %8, align 8
  %244 = load i32, ptr %11, align 4
  %245 = load i32, ptr %13, align 4
  %246 = call zeroext i16 @elem_tlv(ptr noundef %241, ptr noundef %242, ptr noundef %243, i8 noundef zeroext 125, i32 noundef 0, i32 noundef 125, i32 noundef %244, i32 noundef %245, ptr noundef @.str.1123)
  %247 = zext i16 %246 to i32
  store i32 %247, ptr %12, align 4
  %248 = icmp ugt i32 %247, 0
  br i1 %248, label %249, label %256

249:                                              ; preds = %240
  %250 = load i32, ptr %12, align 4
  %251 = load i32, ptr %11, align 4
  %252 = add i32 %251, %250
  store i32 %252, ptr %11, align 4
  %253 = load i32, ptr %12, align 4
  %254 = load i32, ptr %13, align 4
  %255 = sub i32 %254, %253
  store i32 %255, ptr %13, align 4
  br label %256

256:                                              ; preds = %249, %240
  %257 = load i32, ptr %13, align 4
  %258 = icmp sle i32 %257, 0
  br i1 %258, label %259, label %260

259:                                              ; preds = %256
  store i32 1, ptr %14, align 4
  br label %311

260:                                              ; preds = %256
  %261 = load ptr, ptr %6, align 8
  %262 = load ptr, ptr %7, align 8
  %263 = load ptr, ptr %8, align 8
  %264 = load i32, ptr %11, align 4
  %265 = load i32, ptr %13, align 4
  %266 = call zeroext i16 @elem_tlv(ptr noundef %261, ptr noundef %262, ptr noundef %263, i8 noundef zeroext 126, i32 noundef 0, i32 noundef 126, i32 noundef %264, i32 noundef %265, ptr noundef @.str.1122)
  %267 = zext i16 %266 to i32
  store i32 %267, ptr %12, align 4
  %268 = icmp ugt i32 %267, 0
  br i1 %268, label %269, label %276

269:                                              ; preds = %260
  %270 = load i32, ptr %12, align 4
  %271 = load i32, ptr %11, align 4
  %272 = add i32 %271, %270
  store i32 %272, ptr %11, align 4
  %273 = load i32, ptr %12, align 4
  %274 = load i32, ptr %13, align 4
  %275 = sub i32 %274, %273
  store i32 %275, ptr %13, align 4
  br label %276

276:                                              ; preds = %269, %260
  %277 = load i32, ptr %13, align 4
  %278 = icmp sle i32 %277, 0
  br i1 %278, label %279, label %280

279:                                              ; preds = %276
  store i32 1, ptr %14, align 4
  br label %311

280:                                              ; preds = %276
  %281 = load ptr, ptr %6, align 8
  %282 = load ptr, ptr %7, align 8
  %283 = load ptr, ptr %8, align 8
  %284 = load i32, ptr %11, align 4
  %285 = call zeroext i16 @elem_tv(ptr noundef %281, ptr noundef %282, ptr noundef %283, i8 noundef zeroext -115, i32 noundef 0, i32 noundef 141, i32 noundef %284, ptr noundef null)
  %286 = zext i16 %285 to i32
  store i32 %286, ptr %12, align 4
  %287 = icmp ugt i32 %286, 0
  br i1 %287, label %288, label %295

288:                                              ; preds = %280
  %289 = load i32, ptr %12, align 4
  %290 = load i32, ptr %11, align 4
  %291 = add i32 %290, %289
  store i32 %291, ptr %11, align 4
  %292 = load i32, ptr %12, align 4
  %293 = load i32, ptr %13, align 4
  %294 = sub i32 %293, %292
  store i32 %294, ptr %13, align 4
  br label %295

295:                                              ; preds = %288, %280
  %296 = load i32, ptr %13, align 4
  %297 = icmp ugt i32 %296, 0
  br i1 %297, label %298, label %310

298:                                              ; preds = %295
  %299 = load ptr, ptr %7, align 8
  %300 = load ptr, ptr %8, align 8
  %301 = load ptr, ptr %6, align 8
  %302 = load i32, ptr %11, align 4
  %303 = load i32, ptr %13, align 4
  %304 = sub i32 %303, 0
  %305 = call ptr @proto_tree_add_expert(ptr noundef %299, ptr noundef %300, ptr noundef @ei_gsm_a_bssmap_extraneous_data, ptr noundef %301, i32 noundef %302, i32 noundef %304)
  %306 = load i32, ptr %13, align 4
  %307 = sub i32 %306, 0
  %308 = load i32, ptr %11, align 4
  %309 = add i32 %308, %307
  store i32 %309, ptr %11, align 4
  br label %310

310:                                              ; preds = %298, %295
  store i32 0, ptr %14, align 4
  br label %311

311:                                              ; preds = %310, %279, %259, %239, %219, %200, %180, %160, %140, %121, %102, %83, %64, %45
  call void @llvm.lifetime.end.p0(i64 4, ptr %13) #5
  call void @llvm.lifetime.end.p0(i64 4, ptr %12) #5
  call void @llvm.lifetime.end.p0(i64 4, ptr %11) #5
  %312 = load i32, ptr %14, align 4
  switch i32 %312, label %314 [
    i32 0, label %313
    i32 1, label %313
  ]

313:                                              ; preds = %311, %311
  ret void

314:                                              ; preds = %311
  unreachable
}