; Function Attrs: null_pointer_is_valid sspstrong uwtable
define internal void @bssmap_ho_req_ack(ptr noundef %0, ptr noundef %1, ptr noundef %2, i32 noundef %3, i32 noundef %4) #1 {
  %6 = icmp sgt i32 %4, 0
  br i1 %6, label %7, label %13

7:                                                ; preds = %5
  %8 = tail call zeroext i16 @elem_tlv(ptr noundef %0, ptr noundef %1, ptr noundef %2, i8 noundef zeroext 23, i32 noundef 0, i32 noundef 23, i32 noundef %3, i32 noundef %4, ptr noundef null)
  %.not = icmp eq i16 %8, 0
  br i1 %.not, label %13, label %9

9:                                                ; preds = %7
  %10 = zext i16 %8 to i32
  %11 = add i32 %3, %10
  %12 = sub nsw i32 %4, %10
  br label %16

13:                                               ; preds = %7, %5
  %14 = tail call ptr @get_gsm_a_msg_string(i32 noundef 0, i32 noundef 23)
  %15 = tail call ptr (ptr, ptr, ptr, ptr, i32, i32, ptr, ...) @proto_tree_add_expert_format(ptr noundef %1, ptr noundef %2, ptr noundef nonnull @ei_gsm_a_bssmap_missing_mandatory_element, ptr noundef %0, i32 noundef %3, i32 noundef 0, ptr noundef nonnull @.str.139, i32 noundef 23, ptr noundef %14, ptr noundef nonnull @.str.137)
  br label %16

16:                                               ; preds = %13, %9
  %.0146 = phi i32 [ %11, %9 ], [ %3, %13 ]
  %.0 = phi i32 [ %12, %9 ], [ %4, %13 ]
  %17 = icmp slt i32 %.0, 1
  br i1 %17, label %97, label %18

18:                                               ; preds = %16
  %19 = tail call zeroext i16 @elem_tv(ptr noundef %0, ptr noundef %1, ptr noundef %2, i8 noundef zeroext 33, i32 noundef 0, i32 noundef 33, i32 noundef %.0146, ptr noundef null)
  %20 = zext i16 %19 to i32
  %21 = sub nsw i32 %.0, %20
  %22 = icmp slt i32 %21, 1
  br i1 %22, label %97, label %23

23:                                               ; preds = %18
  %24 = add i32 %.0146, %20
  %25 = tail call zeroext i16 @elem_tv(ptr noundef %0, ptr noundef %1, ptr noundef %2, i8 noundef zeroext 44, i32 noundef 0, i32 noundef 44, i32 noundef %24, ptr noundef null)
  %26 = zext i16 %25 to i32
  %27 = sub nsw i32 %21, %26
  %28 = icmp slt i32 %27, 1
  br i1 %28, label %97, label %29

29:                                               ; preds = %23
  %30 = add i32 %24, %26
  %31 = tail call zeroext i16 @elem_tv(ptr noundef %0, ptr noundef %1, ptr noundef %2, i8 noundef zeroext 45, i32 noundef 0, i32 noundef 45, i32 noundef %30, ptr noundef null)
  %32 = zext i16 %31 to i32
  %33 = sub nsw i32 %27, %32
  %34 = icmp slt i32 %33, 1
  br i1 %34, label %97, label %35

35:                                               ; preds = %29
  %36 = add i32 %30, %32
  %37 = tail call zeroext i16 @elem_tv(ptr noundef %0, ptr noundef %1, ptr noundef %2, i8 noundef zeroext 64, i32 noundef 0, i32 noundef 64, i32 noundef %36, ptr noundef nonnull @.str.1121)
  %38 = zext i16 %37 to i32
  %39 = sub nsw i32 %33, %38
  %40 = icmp slt i32 %39, 1
  br i1 %40, label %97, label %41

41:                                               ; preds = %35
  %42 = add i32 %36, %38
  %43 = tail call zeroext i16 @elem_tv(ptr noundef %0, ptr noundef %1, ptr noundef %2, i8 noundef zeroext 1, i32 noundef 0, i32 noundef 1, i32 noundef %42, ptr noundef null)
  %44 = zext i16 %43 to i32
  %45 = sub nsw i32 %39, %44
  %46 = icmp slt i32 %45, 1
  br i1 %46, label %97, label %47

47:                                               ; preds = %41
  %48 = add i32 %42, %44
  %49 = tail call zeroext i16 @elem_tlv(ptr noundef %0, ptr noundef %1, ptr noundef %2, i8 noundef zeroext 59, i32 noundef 0, i32 noundef 59, i32 noundef %48, i32 noundef %45, ptr noundef null)
  %50 = zext i16 %49 to i32
  %51 = sub nsw i32 %45, %50
  %52 = icmp slt i32 %51, 1
  br i1 %52, label %97, label %53

53:                                               ; preds = %47
  %54 = add i32 %48, %50
  %55 = tail call zeroext i16 @elem_tlv(ptr noundef %0, ptr noundef %1, ptr noundef %2, i8 noundef zeroext 97, i32 noundef 0, i32 noundef 97, i32 noundef %54, i32 noundef %51, ptr noundef null)
  %56 = zext i16 %55 to i32
  %57 = sub nsw i32 %51, %56
  %58 = icmp slt i32 %57, 1
  br i1 %58, label %97, label %59

59:                                               ; preds = %53
  %60 = add i32 %54, %56
  %61 = tail call zeroext i16 @elem_tlv(ptr noundef %0, ptr noundef %1, ptr noundef %2, i8 noundef zeroext 99, i32 noundef 0, i32 noundef 99, i32 noundef %60, i32 noundef %57, ptr noundef null)
  %62 = zext i16 %61 to i32
  %63 = sub nsw i32 %57, %62
  %64 = icmp slt i32 %63, 1
  br i1 %64, label %97, label %65

65:                                               ; preds = %59
  %66 = add i32 %60, %62
  %67 = tail call zeroext i16 @elem_tv(ptr noundef %0, ptr noundef %1, ptr noundef %2, i8 noundef zeroext 106, i32 noundef 0, i32 noundef 106, i32 noundef %66, ptr noundef null)
  %68 = zext i16 %67 to i32
  %69 = sub nsw i32 %63, %68
  %70 = icmp slt i32 %69, 1
  br i1 %70, label %97, label %71

71:                                               ; preds = %65
  %72 = add i32 %66, %68
  %73 = tail call zeroext i16 @elem_tlv(ptr noundef %0, ptr noundef %1, ptr noundef %2, i8 noundef zeroext 124, i32 noundef 0, i32 noundef 124, i32 noundef %72, i32 noundef %69, ptr noundef null)
  %74 = zext i16 %73 to i32
  %75 = sub nsw i32 %69, %74
  %76 = icmp slt i32 %75, 1
  br i1 %76, label %97, label %77

77:                                               ; preds = %71
  %78 = add i32 %72, %74
  %79 = tail call zeroext i16 @elem_tlv(ptr noundef %0, ptr noundef %1, ptr noundef %2, i8 noundef zeroext 125, i32 noundef 0, i32 noundef 125, i32 noundef %78, i32 noundef %75, ptr noundef nonnull @.str.1123)
  %80 = zext i16 %79 to i32
  %81 = sub nsw i32 %75, %80
  %82 = icmp slt i32 %81, 1
  br i1 %82, label %97, label %83

83:                                               ; preds = %77
  %84 = add i32 %78, %80
  %85 = tail call zeroext i16 @elem_tlv(ptr noundef %0, ptr noundef %1, ptr noundef %2, i8 noundef zeroext 126, i32 noundef 0, i32 noundef 126, i32 noundef %84, i32 noundef %81, ptr noundef nonnull @.str.1122)
  %86 = zext i16 %85 to i32
  %87 = sub nsw i32 %81, %86
  %88 = icmp slt i32 %87, 1
  br i1 %88, label %97, label %89

89:                                               ; preds = %83
  %90 = add i32 %84, %86
  %91 = tail call zeroext i16 @elem_tv(ptr noundef %0, ptr noundef %1, ptr noundef %2, i8 noundef zeroext -115, i32 noundef 0, i32 noundef 141, i32 noundef %90, ptr noundef null)
  %92 = zext i16 %91 to i32
  %.not188 = icmp eq i32 %87, %92
  br i1 %.not188, label %97, label %93

93:                                               ; preds = %89
  %94 = sub nsw i32 %87, %92
  %95 = add i32 %90, %92
  %96 = tail call ptr @proto_tree_add_expert(ptr noundef %1, ptr noundef %2, ptr noundef nonnull @ei_gsm_a_bssmap_extraneous_data, ptr noundef %0, i32 noundef %95, i32 noundef %94)
  br label %97

97:                                               ; preds = %89, %93, %83, %77, %71, %65, %59, %53, %47, %41, %35, %29, %23, %18, %16
  ret void
}